; Function Attrs: mustprogress nofree norecurse nosync nounwind willreturn memory(readwrite, inaccessiblemem: none) uwtable
define void @_ZN5arrow7compute12RowTableImpl5CleanEv(ptr noundef nonnull align 8 captures(none) dereferenceable(209) initializes((176, 184), (200, 209)) %this) local_unnamed_addr #10 align 2 {
entry:
  %num_rows_ = getelementptr inbounds nuw i8, ptr %this, i64 176
  store i64 0, ptr %num_rows_, align 8
  %num_rows_for_has_any_nulls_ = getelementptr inbounds nuw i8, ptr %this, i64 200
  store i64 0, ptr %num_rows_for_has_any_nulls_, align 8
  %has_any_nulls_ = getelementptr inbounds nuw i8, ptr %this, i64 208
  store i8 0, ptr %has_any_nulls_, align 8
  %metadata_ = getelementptr inbounds nuw i8, ptr %this, i64 8
  %0 = load i8, ptr %metadata_, align 8
  %tobool = trunc i8 %0 to i1
  br i1 %tobool, label %if.end, label %if.then

if.then:                                          ; preds = %entry
  %offsets_ = getelementptr inbounds nuw i8, ptr %this, i64 136
  %1 = load ptr, ptr %offsets_, align 8
  %is_cpu_.i = getelementptr inbounds nuw i8, ptr %1, i64 9
  %2 = load i8, ptr %is_cpu_.i, align 1
  %tobool.i = trunc i8 %2 to i1
  %is_mutable_.i = getelementptr inbounds nuw i8, ptr %1, i64 8
  %3 = load i8, ptr %is_mutable_.i, align 8
  %tobool2.i = trunc i8 %3 to i1
  %4 = select i1 %tobool.i, i1 %tobool2.i, i1 false
  %data_.i = getelementptr inbounds nuw i8, ptr %1, i64 16
  %5 = load ptr, ptr %data_.i, align 8
  %cond.i = select i1 %4, ptr %5, ptr null
  store i32 0, ptr %cond.i, align 4
  br label %if.end

if.end:                                           ; preds = %if.then, %entry
  ret void
}